; Function Attrs: nounwind uwtable
define ptr @l___private_Lean_Environment_0__Lean_EnvExtension_getStateImpl___rarg(ptr noundef %0, ptr noundef readonly captures(none) %1, ptr noundef readonly captures(none) %2) local_unnamed_addr #1 {
  %4 = getelementptr inbounds nuw i8, ptr %1, i64 8
  %5 = load ptr, ptr %4, align 8, !tbaa !9
  %6 = getelementptr i8, ptr %2, i64 8
  %.val = load i64, ptr %6, align 8, !tbaa !15
  %7 = shl i64 %.val, 1
  %8 = or disjoint i64 %7, 1
  %9 = inttoptr i64 %8 to ptr
  %10 = ptrtoint ptr %5 to i64
  %11 = and i64 %10, 1
  %.not = icmp eq i64 %11, 0
  br i1 %.not, label %lean_dec.exit13, label %12, !prof !17

12:                                               ; preds = %3
  %13 = icmp ult ptr %5, %9
  br i1 %13, label %18, label %15

lean_dec.exit13:                                  ; preds = %3
  %14 = tail call zeroext i1 @lean_nat_big_lt(ptr noundef %5, ptr noundef nonnull %9) #10
  br i1 %14, label %18, label %15

15:                                               ; preds = %12, %lean_dec.exit13
  %16 = load ptr, ptr @l___private_Lean_Environment_0__Lean_EnvExtension_getStateImpl___rarg___closed__2, align 8, !tbaa !9
  %17 = tail call ptr @l_panic___rarg(ptr noundef %0, ptr noundef %16) #10
  br label %lean_array_fget.exit

18:                                               ; preds = %12, %lean_dec.exit13
  %19 = ptrtoint ptr %0 to i64
  %20 = and i64 %19, 1
  %.not16 = icmp eq i64 %20, 0
  br i1 %.not16, label %21, label %lean_dec.exit

21:                                               ; preds = %18
  %22 = load i32, ptr %0, align 4, !tbaa !4
  %23 = icmp sgt i32 %22, 1
  br i1 %23, label %24, label %26, !prof !11

24:                                               ; preds = %21
  %25 = add nsw i32 %22, -1
  store i32 %25, ptr %0, align 4, !tbaa !4
  br label %lean_dec.exit

26:                                               ; preds = %21
  %.not.i14 = icmp eq i32 %22, 0
  br i1 %.not.i14, label %lean_dec.exit, label %27

27:                                               ; preds = %26
  tail call void @lean_dec_ref_cold(ptr noundef nonnull %0) #10
  br label %lean_dec.exit

lean_dec.exit:                                    ; preds = %27, %26, %24, %18
  %28 = lshr i64 %10, 1
  %29 = getelementptr inbounds nuw i8, ptr %2, i64 24
  %30 = getelementptr inbounds nuw [0 x ptr], ptr %29, i64 0, i64 %28
  %31 = load ptr, ptr %30, align 8, !tbaa !9
  %32 = ptrtoint ptr %31 to i64
  %33 = and i64 %32, 1
  %.not.i.i = icmp eq i64 %33, 0
  br i1 %.not.i.i, label %34, label %lean_array_fget.exit

34:                                               ; preds = %lean_dec.exit
  %.val.i.i.i = load i32, ptr %31, align 4, !tbaa !4
  %35 = icmp sgt i32 %.val.i.i.i, 0
  br i1 %35, label %36, label %38, !prof !11

36:                                               ; preds = %34
  %37 = add nuw i32 %.val.i.i.i, 1
  store i32 %37, ptr %31, align 4, !tbaa !4
  br label %lean_array_fget.exit

38:                                               ; preds = %34
  %.not.i.i.i = icmp eq i32 %.val.i.i.i, 0
  br i1 %.not.i.i.i, label %lean_array_fget.exit, label %39

39:                                               ; preds = %38
  tail call void @lean_inc_ref_cold(ptr noundef nonnull %31) #10
  br label %lean_array_fget.exit

lean_array_fget.exit:                             ; preds = %39, %38, %36, %lean_dec.exit, %15
  %.0 = phi ptr [ %17, %15 ], [ %31, %lean_dec.exit ], [ %31, %36 ], [ %31, %38 ], [ %31, %39 ]
  ret ptr %.0
}